; Function Attrs: nounwind uwtable
define dso_local void @Curl_trc_ws(ptr noundef %0, ptr noundef %1, ...) local_unnamed_addr #0 {
  %3 = alloca [2053 x i8], align 16
  %4 = alloca [1 x %struct.__va_list_tag], align 16
  %.not = icmp eq ptr %0, null
  br i1 %.not, label %44, label %5

5:                                                ; preds = %2
  %6 = getelementptr inbounds nuw i8, ptr %0, i64 2562
  %7 = load i64, ptr %6, align 2
  %8 = and i64 %7, 134217728
  %.not8 = icmp eq i64 %8, 0
  br i1 %.not8, label %44, label %9

9:                                                ; preds = %5
  %10 = getelementptr inbounds nuw i8, ptr %0, i64 4712
  %11 = load ptr, ptr %10, align 8, !tbaa !81
  %.not9 = icmp eq ptr %11, null
  br i1 %.not9, label %18, label %12

12:                                               ; preds = %9
  %13 = getelementptr inbounds nuw i8, ptr %11, i64 8
  %14 = load i32, ptr %13, align 8, !tbaa !82
  %15 = icmp sgt i32 %14, 0
  %16 = load i32, ptr getelementptr inbounds nuw (i8, ptr @Curl_trc_feat_ws, i64 8), align 8
  %17 = icmp sgt i32 %16, 0
  %or.cond = select i1 %15, i1 %17, i1 false
  br i1 %or.cond, label %19, label %44

18:                                               ; preds = %9
  %.old = load i32, ptr getelementptr inbounds nuw (i8, ptr @Curl_trc_feat_ws, i64 8), align 8, !tbaa !82
  %.old1 = icmp sgt i32 %.old, 0
  br i1 %.old1, label %19, label %44

19:                                               ; preds = %12, %18
  call void @llvm.lifetime.start.p0(i64 24, ptr nonnull %4) #8
  call void @llvm.va_start.p0(ptr nonnull %4)
  call void @llvm.lifetime.start.p0(i64 2053, ptr nonnull %3) #8
  %20 = load ptr, ptr @Curl_trc_feat_ws, align 8, !tbaa !84
  %21 = call i32 (ptr, i64, ptr, ...) @curl_msnprintf(ptr noundef nonnull %3, i64 noundef 2049, ptr noundef nonnull @.str, ptr noundef %20) #8
  %22 = sext i32 %21 to i64
  %23 = getelementptr inbounds i8, ptr %3, i64 %22
  %24 = sub nsw i32 2049, %21
  %25 = sext i32 %24 to i64
  %26 = call i32 @curl_mvsnprintf(ptr noundef nonnull %23, i64 noundef %25, ptr noundef %1, ptr noundef nonnull %4) #8
  %27 = add nsw i32 %26, %21
  %28 = icmp sgt i32 %27, 2047
  br i1 %28, label %29, label %trc_infof.exit

29:                                               ; preds = %19
  %30 = add nsw i32 %27, -1
  %31 = zext nneg i32 %30 to i64
  %32 = getelementptr inbounds nuw [2053 x i8], ptr %3, i64 0, i64 %31
  store i8 46, ptr %32, align 1, !tbaa !80
  %33 = add nuw nsw i32 %27, 1
  %34 = zext nneg i32 %27 to i64
  %35 = getelementptr inbounds nuw [2053 x i8], ptr %3, i64 0, i64 %34
  store i8 46, ptr %35, align 1, !tbaa !80
  %36 = add nuw nsw i32 %27, 2
  %37 = zext nneg i32 %33 to i64
  %38 = getelementptr inbounds nuw [2053 x i8], ptr %3, i64 0, i64 %37
  store i8 46, ptr %38, align 1, !tbaa !80
  br label %trc_infof.exit

trc_infof.exit:                                   ; preds = %19, %29
  %.1.i = phi i32 [ %36, %29 ], [ %27, %19 ]
  %39 = add nsw i32 %.1.i, 1
  %40 = sext i32 %.1.i to i64
  %41 = getelementptr inbounds [2053 x i8], ptr %3, i64 0, i64 %40
  store i8 10, ptr %41, align 1, !tbaa !80
  %42 = sext i32 %39 to i64
  %43 = getelementptr inbounds [2053 x i8], ptr %3, i64 0, i64 %42
  store i8 0, ptr %43, align 1, !tbaa !80
  call void @Curl_debug(ptr noundef nonnull %0, i32 noundef 0, ptr noundef nonnull %3, i64 noundef %42)
  call void @llvm.lifetime.end.p0(i64 2053, ptr nonnull %3) #8
  call void @llvm.va_end.p0(ptr nonnull %4)
  call void @llvm.lifetime.end.p0(i64 24, ptr nonnull %4) #8
  br label %44

44:                                               ; preds = %trc_infof.exit, %18, %12, %5, %2
  ret void
}